; Function Attrs: nounwind uwtable
define internal void @lv_dropdown_constructor(ptr nocapture readnone %0, ptr noundef %1) #0 {
  %3 = getelementptr inbounds nuw i8, ptr %1, i64 64
  store ptr null, ptr %3, align 8, !tbaa !3
  %4 = getelementptr inbounds nuw i8, ptr %1, i64 88
  store ptr null, ptr %4, align 8, !tbaa !12
  %5 = getelementptr inbounds nuw i8, ptr %1, i64 80
  store ptr @.str.4, ptr %5, align 8, !tbaa !13
  %6 = getelementptr inbounds nuw i8, ptr %1, i64 72
  store ptr null, ptr %6, align 8, !tbaa !14
  %7 = getelementptr inbounds nuw i8, ptr %1, i64 112
  %8 = load i8, ptr %7, align 8
  %9 = getelementptr inbounds nuw i8, ptr %1, i64 100
  store i32 0, ptr %9, align 4, !tbaa !15
  %10 = getelementptr inbounds nuw i8, ptr %1, i64 104
  store i32 0, ptr %10, align 8, !tbaa !16
  %11 = getelementptr inbounds nuw i8, ptr %1, i64 108
  store i32 65535, ptr %11, align 4, !tbaa !17
  %12 = getelementptr inbounds nuw i8, ptr %1, i64 96
  store i32 0, ptr %12, align 8, !tbaa !18
  %13 = and i8 %8, -64
  %14 = or disjoint i8 %13, 56
  store i8 %14, ptr %7, align 8
  tail call void @lv_obj_add_flag(ptr noundef %1, i32 noundef 1024) #7
  br label %15

15:                                               ; preds = %22, %2
  %16 = phi i32 [ 0, %2 ], [ %23, %22 ]
  %.0.i = phi i32 [ 0, %2 ], [ %24, %22 ]
  %17 = zext i32 %.0.i to i64
  %18 = getelementptr inbounds nuw i8, ptr @.str.5, i64 %17
  %19 = load i8, ptr %18, align 1, !tbaa !19
  switch i8 %19, label %22 [
    i8 0, label %25
    i8 10, label %20
  ]

20:                                               ; preds = %15
  %21 = add i32 %16, 1
  store i32 %21, ptr %12, align 8, !tbaa !18
  br label %22

22:                                               ; preds = %20, %15
  %23 = phi i32 [ %16, %15 ], [ %21, %20 ]
  %24 = add i32 %.0.i, 1
  br label %15, !llvm.loop !20

25:                                               ; preds = %15
  %26 = add i32 %16, 1
  store i32 %26, ptr %12, align 8, !tbaa !18
  store i32 0, ptr %9, align 4, !tbaa !15
  store i32 0, ptr %10, align 8, !tbaa !16
  %27 = load i8, ptr %7, align 8
  %28 = and i8 %27, 16
  %29 = icmp eq i8 %28, 0
  br i1 %29, label %30, label %33

30:                                               ; preds = %25
  %31 = load ptr, ptr %4, align 8, !tbaa !12
  %.not26.i = icmp eq ptr %31, null
  br i1 %.not26.i, label %33, label %32

32:                                               ; preds = %30
  tail call void @lv_free(ptr noundef nonnull %31) #7
  %.pre.i = load i8, ptr %7, align 8
  br label %33

33:                                               ; preds = %32, %30, %25
  %34 = phi i8 [ %.pre.i, %32 ], [ %27, %30 ], [ %27, %25 ]
  %35 = or i8 %34, 16
  store i8 %35, ptr %7, align 8
  store ptr @.str.5, ptr %4, align 8, !tbaa !12
  tail call void @lv_obj_invalidate(ptr noundef nonnull %1) #7
  %36 = load ptr, ptr %3, align 8, !tbaa !3
  %.not27.i = icmp eq ptr %36, null
  br i1 %.not27.i, label %lv_dropdown_set_options_static.exit, label %37

37:                                               ; preds = %33
  tail call void @lv_obj_invalidate(ptr noundef nonnull %36) #7
  br label %lv_dropdown_set_options_static.exit

lv_dropdown_set_options_static.exit:              ; preds = %33, %37
  %38 = tail call ptr @lv_obj_get_screen(ptr noundef nonnull %1) #7
  %39 = tail call ptr @lv_obj_class_create_obj(ptr noundef nonnull @lv_dropdownlist_class, ptr noundef %38) #7
  tail call void @lv_obj_class_init_obj(ptr noundef %39) #7
  store ptr %39, ptr %3, align 8, !tbaa !3
  %40 = getelementptr inbounds nuw i8, ptr %39, i64 64
  store ptr %1, ptr %40, align 8, !tbaa !22
  ret void
}